
timer_elf:     file format elf32-littlearm


Disassembly of section .text:

00000000 <_start>:
   0:	eaffffff 	b	4 <Reset>

00000004 <Reset>:
   4:	e3a0da01 	mov	sp, #4096	; 0x1000
   8:	eb00000a 	bl	38 <disable_watch_dog>
   c:	eb00000d 	bl	48 <clock_init>
  10:	eb000016 	bl	70 <memsetup>
  14:	eb000031 	bl	e0 <copy_steppingstone_to_sdram>
  18:	e59ff00c 	ldr	pc, [pc, #12]	; 2c <halt_loop+0x4>

0000001c <on_sdram>:
  1c:	e3a0d30d 	mov	sp, #872415232	; 0x34000000
  20:	e59fe008 	ldr	lr, [pc, #8]	; 30 <halt_loop+0x8>
  24:	e59ff008 	ldr	pc, [pc, #8]	; 34 <halt_loop+0xc>

00000028 <halt_loop>:
  28:	eafffffe 	b	28 <halt_loop>
  2c:	0000001c 	.word	0x0000001c
  30:	00000028 	.word	0x00000028
  34:	000002f4 	.word	0x000002f4

00000038 <disable_watch_dog>:
  38:	e3a02000 	mov	r2, #0	; 0x0
  3c:	e3a03453 	mov	r3, #1392508928	; 0x53000000
  40:	e5832000 	str	r2, [r3]
  44:	e12fff1e 	bx	lr

00000048 <clock_init>:
  48:	e3a02313 	mov	r2, #1275068416	; 0x4c000000
  4c:	e3a03003 	mov	r3, #3	; 0x3
  50:	e5823014 	str	r3, [r2, #20]
  54:	ee111f10 	mrc	15, 0, r1, cr1, cr0, {0}
  58:	e3811103 	orr	r1, r1, #-1073741824	; 0xc0000000
  5c:	ee011f10 	mcr	15, 0, r1, cr1, cr0, {0}
  60:	e3a03917 	mov	r3, #376832	; 0x5c000
  64:	e2833012 	add	r3, r3, #18	; 0x12
  68:	e5823004 	str	r3, [r2, #4]
  6c:	e12fff1e 	bx	lr

00000070 <memsetup>:
  70:	e3a01422 	mov	r1, #570425344	; 0x22000000
  74:	e3a0c723 	mov	ip, #9175040	; 0x8c0000
  78:	e2811a11 	add	r1, r1, #69632	; 0x11000
  7c:	e3a03312 	mov	r3, #1207959552	; 0x48000000
  80:	e3a02c07 	mov	r2, #1792	; 0x700
  84:	e28cce4f 	add	ip, ip, #1264	; 0x4f0
  88:	e3a00906 	mov	r0, #98304	; 0x18000
  8c:	e2811e11 	add	r1, r1, #272	; 0x110
  90:	e5831000 	str	r1, [r3]
  94:	e2800005 	add	r0, r0, #5	; 0x5
  98:	e5832004 	str	r2, [r3, #4]
  9c:	e52d4004 	push	{r4}		; (str r4, [sp, #-4]!)
  a0:	e5832008 	str	r2, [r3, #8]
  a4:	e3a04030 	mov	r4, #48	; 0x30
  a8:	e583200c 	str	r2, [r3, #12]
  ac:	e28cc004 	add	ip, ip, #4	; 0x4
  b0:	e5832010 	str	r2, [r3, #16]
  b4:	e5832014 	str	r2, [r3, #20]
  b8:	e5832018 	str	r2, [r3, #24]
  bc:	e3a020b1 	mov	r2, #177	; 0xb1
  c0:	e583001c 	str	r0, [r3, #28]
  c4:	e5830020 	str	r0, [r3, #32]
  c8:	e583c024 	str	ip, [r3, #36]
  cc:	e5832028 	str	r2, [r3, #40]
  d0:	e583402c 	str	r4, [r3, #44]
  d4:	e5834030 	str	r4, [r3, #48]
  d8:	e8bd0010 	pop	{r4}
  dc:	e12fff1e 	bx	lr

000000e0 <copy_steppingstone_to_sdram>:
  e0:	e3a00a01 	mov	r0, #4096	; 0x1000
  e4:	e2800004 	add	r0, r0, #4	; 0x4
  e8:	e3a01004 	mov	r1, #4	; 0x4
  ec:	e241224d 	sub	r2, r1, #-805306364	; 0xd0000004
  f0:	e5113004 	ldr	r3, [r1, #-4]
  f4:	e2811004 	add	r1, r1, #4	; 0x4
  f8:	e1510000 	cmp	r1, r0
  fc:	e5823000 	str	r3, [r2]
 100:	1afffff9 	bne	ec <copy_steppingstone_to_sdram+0xc>
 104:	e12fff1e 	bx	lr

00000108 <init_port>:
 108:	e3a01caa 	mov	r1, #43520	; 0xaa00
 10c:	e28110aa 	add	r1, r1, #170	; 0xaa
 110:	e59f301c 	ldr	r3, [pc, #28]	; 134 <init_port+0x2c>
 114:	e3a02456 	mov	r2, #1442840576	; 0x56000000
 118:	e3a00000 	mov	r0, #0	; 0x0
 11c:	e1811801 	orr	r1, r1, r1, lsl #16
 120:	e5820028 	str	r0, [r2, #40]
 124:	e5820038 	str	r0, [r2, #56]
 128:	e5823020 	str	r3, [r2, #32]
 12c:	e5821030 	str	r1, [r2, #48]
 130:	e12fff1e 	bx	lr
 134:	aaaa02a9 	.word	0xaaaa02a9

00000138 <Tft_Lcd_Init>:
 138:	e59f309c 	ldr	r3, [pc, #156]	; 1dc <Tft_Lcd_Init+0xa4>
 13c:	e92d00f0 	push	{r4, r5, r6, r7}
 140:	e3a02509 	mov	r2, #37748736	; 0x2400000
 144:	e3a04602 	mov	r4, #2097152	; 0x200000
 148:	e2831bff 	add	r1, r3, #261120	; 0x3fc00
 14c:	e2444001 	sub	r4, r4, #1	; 0x1
 150:	e3a00851 	mov	r0, #5308416	; 0x510000
 154:	e282290f 	add	r2, r2, #245760	; 0x3c000
 158:	e3a0ce47 	mov	ip, #1136	; 0x470
 15c:	e00470a3 	and	r7, r4, r3, lsr #1
 160:	e2822f42 	add	r2, r2, #264	; 0x108
 164:	e1a03b23 	lsr	r3, r3, #22
 168:	e00440a1 	and	r4, r4, r1, lsr #1
 16c:	e2800cdf 	add	r0, r0, #57088	; 0xdf00
 170:	e3a0144d 	mov	r1, #1291845632	; 0x4d000000
 174:	e3a05ed1 	mov	r5, #3344	; 0xd10
 178:	e3a06c0b 	mov	r6, #2816	; 0xb00
 17c:	e28cc008 	add	ip, ip, #8	; 0x8
 180:	e581c000 	str	ip, [r1]
 184:	e1877a83 	orr	r7, r7, r3, lsl #21
 188:	e5812004 	str	r2, [r1, #4]
 18c:	e2800013 	add	r0, r0, #19	; 0x13
 190:	e3a02e1e 	mov	r2, #480	; 0x1e0
 194:	e285500e 	add	r5, r5, #14	; 0xe
 198:	e2866009 	add	r6, r6, #9	; 0x9
 19c:	e5810008 	str	r0, [r1, #8]
 1a0:	e581500c 	str	r5, [r1, #12]
 1a4:	e5816010 	str	r6, [r1, #16]
 1a8:	e5817014 	str	r7, [r1, #20]
 1ac:	e5814018 	str	r4, [r1, #24]
 1b0:	e581201c 	str	r2, [r1, #28]
 1b4:	e591305c 	ldr	r3, [r1, #92]
 1b8:	e3833003 	orr	r3, r3, #3	; 0x3
 1bc:	e581305c 	str	r3, [r1, #92]
 1c0:	e5912060 	ldr	r2, [r1, #96]
 1c4:	e3a03000 	mov	r3, #0	; 0x0
 1c8:	e3c22007 	bic	r2, r2, #7	; 0x7
 1cc:	e5812060 	str	r2, [r1, #96]
 1d0:	e5813050 	str	r3, [r1, #80]
 1d4:	e8bd00f0 	pop	{r4, r5, r6, r7}
 1d8:	e12fff1e 	bx	lr
 1dc:	00008340 	.word	0x00008340

000001e0 <Lcd_PowerEnable>:
 1e0:	e3a0c456 	mov	ip, #1442840576	; 0x56000000
 1e4:	e59c3068 	ldr	r3, [ip, #104]
 1e8:	e3833010 	orr	r3, r3, #16	; 0x10
 1ec:	e58c3068 	str	r3, [ip, #104]
 1f0:	e59c2060 	ldr	r2, [ip, #96]
 1f4:	e3822c03 	orr	r2, r2, #768	; 0x300
 1f8:	e58c2060 	str	r2, [ip, #96]
 1fc:	e59c3064 	ldr	r3, [ip, #100]
 200:	e3833010 	orr	r3, r3, #16	; 0x10
 204:	e58c3064 	str	r3, [ip, #100]
 208:	e52d4004 	push	{r4}		; (str r4, [sp, #-4]!)
 20c:	e3a0444d 	mov	r4, #1291845632	; 0x4d000000
 210:	e5943010 	ldr	r3, [r4, #16]
 214:	e3c33020 	bic	r3, r3, #32	; 0x20
 218:	e1833280 	orr	r3, r3, r0, lsl #5
 21c:	e5843010 	str	r3, [r4, #16]
 220:	e5942010 	ldr	r2, [r4, #16]
 224:	e3c22008 	bic	r2, r2, #8	; 0x8
 228:	e1822181 	orr	r2, r2, r1, lsl #3
 22c:	e5842010 	str	r2, [r4, #16]
 230:	e8bd0010 	pop	{r4}
 234:	e12fff1e 	bx	lr

00000238 <ClearScr>:
 238:	e3c004ff 	bic	r0, r0, #-16777216	; 0xff000000
 23c:	e3800401 	orr	r0, r0, #16777216	; 0x1000000
 240:	e3a0344d 	mov	r3, #1291845632	; 0x4d000000
 244:	e5830050 	str	r0, [r3, #80]
 248:	e12fff1e 	bx	lr

0000024c <delay>:
 24c:	e3a01451 	mov	r1, #1358954496	; 0x51000000
 250:	e5913000 	ldr	r3, [r1]
 254:	e3c33cff 	bic	r3, r3, #65280	; 0xff00
 258:	e5813000 	str	r3, [r1]
 25c:	e5912000 	ldr	r2, [r1]
 260:	e3822c03 	orr	r2, r2, #768	; 0x300
 264:	e5812000 	str	r2, [r1]
 268:	e5913004 	ldr	r3, [r1, #4]
 26c:	e3c33a0f 	bic	r3, r3, #61440	; 0xf000
 270:	e5813004 	str	r3, [r1, #4]
 274:	e3a0cd61 	mov	ip, #6208	; 0x1840
 278:	e5913004 	ldr	r3, [r1, #4]
 27c:	e3a02ec3 	mov	r2, #3120	; 0xc30
 280:	e2822004 	add	r2, r2, #4	; 0x4
 284:	e28cc029 	add	ip, ip, #41	; 0x29
 288:	e5813004 	str	r3, [r1, #4]
 28c:	e581c030 	str	ip, [r1, #48]
 290:	e5812034 	str	r2, [r1, #52]
 294:	e5913008 	ldr	r3, [r1, #8]
 298:	e3c3380f 	bic	r3, r3, #983040	; 0xf0000
 29c:	e5813008 	str	r3, [r1, #8]
 2a0:	e5912008 	ldr	r2, [r1, #8]
 2a4:	e382280b 	orr	r2, r2, #720896	; 0xb0000
 2a8:	e5812008 	str	r2, [r1, #8]
 2ac:	e5913008 	ldr	r3, [r1, #8]
 2b0:	e3c33802 	bic	r3, r3, #131072	; 0x20000
 2b4:	e3a02ec3 	mov	r2, #3120	; 0xc30
 2b8:	e5813008 	str	r3, [r1, #8]
 2bc:	e2822003 	add	r2, r2, #3	; 0x3
 2c0:	e2500001 	subs	r0, r0, #1	; 0x1
 2c4:	3a000009 	bcc	2f0 <delay+0xa4>
 2c8:	e5913038 	ldr	r3, [r1, #56]
 2cc:	e1530002 	cmp	r3, r2
 2d0:	8afffffc 	bhi	2c8 <delay+0x7c>
 2d4:	e5913038 	ldr	r3, [r1, #56]
 2d8:	e1530002 	cmp	r3, r2
 2dc:	8afffff7 	bhi	2c0 <delay+0x74>
 2e0:	e5913038 	ldr	r3, [r1, #56]
 2e4:	e1530002 	cmp	r3, r2
 2e8:	9afffff9 	bls	2d4 <delay+0x88>
 2ec:	eafffff3 	b	2c0 <delay+0x74>
 2f0:	e12fff1e 	bx	lr

000002f4 <main>:
 2f4:	e92d4070 	push	{r4, r5, r6, lr}
 2f8:	ebffff82 	bl	108 <init_port>
 2fc:	ebffff8d 	bl	138 <Tft_Lcd_Init>
 300:	e3a00000 	mov	r0, #0	; 0x0
 304:	e3a01001 	mov	r1, #1	; 0x1
 308:	ebffffb4 	bl	1e0 <Lcd_PowerEnable>
 30c:	e3a0244d 	mov	r2, #1291845632	; 0x4d000000
 310:	e5923000 	ldr	r3, [r2]
 314:	e3833001 	orr	r3, r3, #1	; 0x1
 318:	e5823000 	str	r3, [r2]
 31c:	e1a05002 	mov	r5, r2
 320:	e3a040ff 	mov	r4, #255	; 0xff
 324:	e2844001 	add	r4, r4, #1	; 0x1
 328:	e3c434ff 	bic	r3, r4, #-16777216	; 0xff000000
 32c:	e3833401 	orr	r3, r3, #16777216	; 0x1000000
 330:	e3a00005 	mov	r0, #5	; 0x5
 334:	e5853050 	str	r3, [r5, #80]
 338:	ebffffc3 	bl	24c <delay>
 33c:	eafffff8 	b	324 <main+0x30>
