
timer_elf:     file format elf32-littlearm


Disassembly of section .text:

00000000 <_start>:
   0:	e3a0da01 	mov	sp, #4096	; 0x1000
   4:	eb00000a 	bl	34 <disable_watch_dog>
   8:	eb00000d 	bl	44 <clock_init>
   c:	eb000016 	bl	6c <memsetup>
  10:	eb000031 	bl	dc <copy_steppingstone_to_sdram>
  14:	e59ff00c 	ldr	pc, [pc, #12]	; 28 <halt_loop+0x4>

00000018 <on_sdram>:
  18:	e3a0d30d 	mov	sp, #872415232	; 0x34000000
  1c:	e59fe008 	ldr	lr, [pc, #8]	; 2c <halt_loop+0x8>
  20:	e59ff008 	ldr	pc, [pc, #8]	; 30 <halt_loop+0xc>

00000024 <halt_loop>:
  24:	eafffffe 	b	24 <halt_loop>
  28:	00000018 	.word	0x00000018
  2c:	00000024 	.word	0x00000024
  30:	000002f0 	.word	0x000002f0

00000034 <disable_watch_dog>:
  34:	e3a02000 	mov	r2, #0	; 0x0
  38:	e3a03453 	mov	r3, #1392508928	; 0x53000000
  3c:	e5832000 	str	r2, [r3]
  40:	e12fff1e 	bx	lr

00000044 <clock_init>:
  44:	e3a02313 	mov	r2, #1275068416	; 0x4c000000
  48:	e3a03003 	mov	r3, #3	; 0x3
  4c:	e5823014 	str	r3, [r2, #20]
  50:	ee111f10 	mrc	15, 0, r1, cr1, cr0, {0}
  54:	e3811103 	orr	r1, r1, #-1073741824	; 0xc0000000
  58:	ee011f10 	mcr	15, 0, r1, cr1, cr0, {0}
  5c:	e3a03917 	mov	r3, #376832	; 0x5c000
  60:	e2833012 	add	r3, r3, #18	; 0x12
  64:	e5823004 	str	r3, [r2, #4]
  68:	e12fff1e 	bx	lr

0000006c <memsetup>:
  6c:	e3a01422 	mov	r1, #570425344	; 0x22000000
  70:	e3a0c723 	mov	ip, #9175040	; 0x8c0000
  74:	e2811a11 	add	r1, r1, #69632	; 0x11000
  78:	e3a03312 	mov	r3, #1207959552	; 0x48000000
  7c:	e3a02c07 	mov	r2, #1792	; 0x700
  80:	e28cce4f 	add	ip, ip, #1264	; 0x4f0
  84:	e3a00906 	mov	r0, #98304	; 0x18000
  88:	e2811e11 	add	r1, r1, #272	; 0x110
  8c:	e5831000 	str	r1, [r3]
  90:	e2800005 	add	r0, r0, #5	; 0x5
  94:	e5832004 	str	r2, [r3, #4]
  98:	e52d4004 	push	{r4}		; (str r4, [sp, #-4]!)
  9c:	e5832008 	str	r2, [r3, #8]
  a0:	e3a04030 	mov	r4, #48	; 0x30
  a4:	e583200c 	str	r2, [r3, #12]
  a8:	e28cc004 	add	ip, ip, #4	; 0x4
  ac:	e5832010 	str	r2, [r3, #16]
  b0:	e5832014 	str	r2, [r3, #20]
  b4:	e5832018 	str	r2, [r3, #24]
  b8:	e3a020b1 	mov	r2, #177	; 0xb1
  bc:	e583001c 	str	r0, [r3, #28]
  c0:	e5830020 	str	r0, [r3, #32]
  c4:	e583c024 	str	ip, [r3, #36]
  c8:	e5832028 	str	r2, [r3, #40]
  cc:	e583402c 	str	r4, [r3, #44]
  d0:	e5834030 	str	r4, [r3, #48]
  d4:	e8bd0010 	pop	{r4}
  d8:	e12fff1e 	bx	lr

000000dc <copy_steppingstone_to_sdram>:
  dc:	e3a00a01 	mov	r0, #4096	; 0x1000
  e0:	e2800004 	add	r0, r0, #4	; 0x4
  e4:	e3a01004 	mov	r1, #4	; 0x4
  e8:	e241224d 	sub	r2, r1, #-805306364	; 0xd0000004
  ec:	e5113004 	ldr	r3, [r1, #-4]
  f0:	e2811004 	add	r1, r1, #4	; 0x4
  f4:	e1510000 	cmp	r1, r0
  f8:	e5823000 	str	r3, [r2]
  fc:	1afffff9 	bne	e8 <copy_steppingstone_to_sdram+0xc>
 100:	e12fff1e 	bx	lr

00000104 <uart0_init>:
 104:	e3a01456 	mov	r1, #1442840576	; 0x56000000
 108:	e5913070 	ldr	r3, [r1, #112]
 10c:	e38330a0 	orr	r3, r3, #160	; 0xa0
 110:	e5813070 	str	r3, [r1, #112]
 114:	e3a00205 	mov	r0, #1342177280	; 0x50000000
 118:	e3a0200c 	mov	r2, #12	; 0xc
 11c:	e3a03003 	mov	r3, #3	; 0x3
 120:	e5812078 	str	r2, [r1, #120]
 124:	e3a0c000 	mov	ip, #0	; 0x0
 128:	e5803000 	str	r3, [r0]
 12c:	e3a02005 	mov	r2, #5	; 0x5
 130:	e3a0301a 	mov	r3, #26	; 0x1a
 134:	e5802004 	str	r2, [r0, #4]
 138:	e580c008 	str	ip, [r0, #8]
 13c:	e580c00c 	str	ip, [r0, #12]
 140:	e5803028 	str	r3, [r0, #40]
 144:	e12fff1e 	bx	lr

00000148 <putccc>:
 148:	e3a02205 	mov	r2, #1342177280	; 0x50000000
 14c:	e5923010 	ldr	r3, [r2, #16]
 150:	e3130004 	tst	r3, #4	; 0x4
 154:	0afffffc 	beq	14c <putccc+0x4>
 158:	e3a03205 	mov	r3, #1342177280	; 0x50000000
 15c:	e5c30020 	strb	r0, [r3, #32]
 160:	e12fff1e 	bx	lr

00000164 <getc>:
 164:	e3a02205 	mov	r2, #1342177280	; 0x50000000
 168:	e5923010 	ldr	r3, [r2, #16]
 16c:	e3130001 	tst	r3, #1	; 0x1
 170:	0afffffc 	beq	168 <getc+0x4>
 174:	e3a03205 	mov	r3, #1342177280	; 0x50000000
 178:	e5d30024 	ldrb	r0, [r3, #36]
 17c:	e12fff1e 	bx	lr

00000180 <key_init>:
 180:	e3a02456 	mov	r2, #1442840576	; 0x56000000
 184:	e5923050 	ldr	r3, [r2, #80]
 188:	e2033eff 	and	r3, r3, #4080	; 0xff0
 18c:	e5823050 	str	r3, [r2, #80]
 190:	e12fff1e 	bx	lr

00000194 <buzzer_init>:
 194:	e3a01456 	mov	r1, #1442840576	; 0x56000000
 198:	e5913010 	ldr	r3, [r1, #16]
 19c:	e3c33003 	bic	r3, r3, #3	; 0x3
 1a0:	e5813010 	str	r3, [r1, #16]
 1a4:	e5912010 	ldr	r2, [r1, #16]
 1a8:	e3822001 	orr	r2, r2, #1	; 0x1
 1ac:	e5812010 	str	r2, [r1, #16]
 1b0:	e5913014 	ldr	r3, [r1, #20]
 1b4:	e3c33001 	bic	r3, r3, #1	; 0x1
 1b8:	e5813014 	str	r3, [r1, #20]
 1bc:	e12fff1e 	bx	lr

000001c0 <delay>:
 1c0:	e3a01451 	mov	r1, #1358954496	; 0x51000000
 1c4:	e5913000 	ldr	r3, [r1]
 1c8:	e3c33cff 	bic	r3, r3, #65280	; 0xff00
 1cc:	e5813000 	str	r3, [r1]
 1d0:	e5912000 	ldr	r2, [r1]
 1d4:	e3822c03 	orr	r2, r2, #768	; 0x300
 1d8:	e5812000 	str	r2, [r1]
 1dc:	e5913004 	ldr	r3, [r1, #4]
 1e0:	e3c33a0f 	bic	r3, r3, #61440	; 0xf000
 1e4:	e5813004 	str	r3, [r1, #4]
 1e8:	e3a0cd61 	mov	ip, #6208	; 0x1840
 1ec:	e5913004 	ldr	r3, [r1, #4]
 1f0:	e3a02ec3 	mov	r2, #3120	; 0xc30
 1f4:	e2822004 	add	r2, r2, #4	; 0x4
 1f8:	e28cc029 	add	ip, ip, #41	; 0x29
 1fc:	e5813004 	str	r3, [r1, #4]
 200:	e581c030 	str	ip, [r1, #48]
 204:	e5812034 	str	r2, [r1, #52]
 208:	e5913008 	ldr	r3, [r1, #8]
 20c:	e3c3380f 	bic	r3, r3, #983040	; 0xf0000
 210:	e5813008 	str	r3, [r1, #8]
 214:	e5912008 	ldr	r2, [r1, #8]
 218:	e382280b 	orr	r2, r2, #720896	; 0xb0000
 21c:	e5812008 	str	r2, [r1, #8]
 220:	e5913008 	ldr	r3, [r1, #8]
 224:	e3c33802 	bic	r3, r3, #131072	; 0x20000
 228:	e3a02ec3 	mov	r2, #3120	; 0xc30
 22c:	e5813008 	str	r3, [r1, #8]
 230:	e2822003 	add	r2, r2, #3	; 0x3
 234:	e2500001 	subs	r0, r0, #1	; 0x1
 238:	3a000009 	bcc	264 <delay+0xa4>
 23c:	e5913038 	ldr	r3, [r1, #56]
 240:	e1530002 	cmp	r3, r2
 244:	8afffffc 	bhi	23c <delay+0x7c>
 248:	e5913038 	ldr	r3, [r1, #56]
 24c:	e1530002 	cmp	r3, r2
 250:	8afffff7 	bhi	234 <delay+0x74>
 254:	e5913038 	ldr	r3, [r1, #56]
 258:	e1530002 	cmp	r3, r2
 25c:	9afffff9 	bls	248 <delay+0x88>
 260:	eafffff3 	b	234 <delay+0x74>
 264:	e12fff1e 	bx	lr

00000268 <buzzer_freq_sets>:
 268:	e3a0c456 	mov	ip, #1442840576	; 0x56000000
 26c:	e59c3010 	ldr	r3, [ip, #16]
 270:	e3c33003 	bic	r3, r3, #3	; 0x3
 274:	e58c3010 	str	r3, [ip, #16]
 278:	e59c2010 	ldr	r2, [ip, #16]
 27c:	e3822002 	orr	r2, r2, #2	; 0x2
 280:	e58c2010 	str	r2, [ip, #16]
 284:	e3a01451 	mov	r1, #1358954496	; 0x51000000
 288:	e5913000 	ldr	r3, [r1]
 28c:	e3c330ff 	bic	r3, r3, #255	; 0xff
 290:	e5813000 	str	r3, [r1]
 294:	e5912000 	ldr	r2, [r1]
 298:	e382200f 	orr	r2, r2, #15	; 0xf
 29c:	e5812000 	str	r2, [r1]
 2a0:	e5913004 	ldr	r3, [r1, #4]
 2a4:	e3c3300f 	bic	r3, r3, #15	; 0xf
 2a8:	e5813004 	str	r3, [r1, #4]
 2ac:	e5912004 	ldr	r2, [r1, #4]
 2b0:	e3822002 	orr	r2, r2, #2	; 0x2
 2b4:	e5812004 	str	r2, [r1, #4]
 2b8:	e581000c 	str	r0, [r1, #12]
 2bc:	e591300c 	ldr	r3, [r1, #12]
 2c0:	e1a030a3 	lsr	r3, r3, #1
 2c4:	e5813010 	str	r3, [r1, #16]
 2c8:	e5912008 	ldr	r2, [r1, #8]
 2cc:	e3c2201f 	bic	r2, r2, #31	; 0x1f
 2d0:	e5812008 	str	r2, [r1, #8]
 2d4:	e5913008 	ldr	r3, [r1, #8]
 2d8:	e383300b 	orr	r3, r3, #11	; 0xb
 2dc:	e5813008 	str	r3, [r1, #8]
 2e0:	e5912008 	ldr	r2, [r1, #8]
 2e4:	e3c22002 	bic	r2, r2, #2	; 0x2
 2e8:	e5812008 	str	r2, [r1, #8]
 2ec:	e12fff1e 	bx	lr

000002f0 <main>:
 2f0:	e92d4070 	push	{r4, r5, r6, lr}
 2f4:	e3a04456 	mov	r4, #1442840576	; 0x56000000
 2f8:	ebffff81 	bl	104 <uart0_init>
 2fc:	e5943050 	ldr	r3, [r4, #80]
 300:	e2033eff 	and	r3, r3, #4080	; 0xff0
 304:	e5843050 	str	r3, [r4, #80]
 308:	e5942010 	ldr	r2, [r4, #16]
 30c:	e3c22003 	bic	r2, r2, #3	; 0x3
 310:	e5842010 	str	r2, [r4, #16]
 314:	e5943010 	ldr	r3, [r4, #16]
 318:	e3833001 	orr	r3, r3, #1	; 0x1
 31c:	e5843010 	str	r3, [r4, #16]
 320:	e5942014 	ldr	r2, [r4, #20]
 324:	e3c22001 	bic	r2, r2, #1	; 0x1
 328:	e5842014 	str	r2, [r4, #20]
 32c:	e3a00061 	mov	r0, #97	; 0x61
 330:	ebffff84 	bl	148 <putccc>
 334:	e3a06d1f 	mov	r6, #1984	; 0x7c0
 338:	e3a00ffa 	mov	r0, #1000	; 0x3e8
 33c:	e1a05004 	mov	r5, r4
 340:	ebffffc8 	bl	268 <buzzer_freq_sets>
 344:	e286600f 	add	r6, r6, #15	; 0xf
 348:	e3a04ffa 	mov	r4, #1000	; 0x3e8
 34c:	ea000004 	b	364 <main+0x74>
 350:	e5953054 	ldr	r3, [r5, #84]
 354:	e3130002 	tst	r3, #2	; 0x2
 358:	0a000011 	beq	3a4 <main+0xb4>
 35c:	e3a000c8 	mov	r0, #200	; 0xc8
 360:	ebffff96 	bl	1c0 <delay>
 364:	e5953054 	ldr	r3, [r5, #84]
 368:	e3130001 	tst	r3, #1	; 0x1
 36c:	1afffff7 	bne	350 <main+0x60>
 370:	e3a0007a 	mov	r0, #122	; 0x7a
 374:	ebffff73 	bl	148 <putccc>
 378:	e3a0000a 	mov	r0, #10	; 0xa
 37c:	ebffff71 	bl	148 <putccc>
 380:	e3a0000d 	mov	r0, #13	; 0xd
 384:	ebffff6f 	bl	148 <putccc>
 388:	e1540006 	cmp	r4, r6
 38c:	9284400a 	addls	r4, r4, #10	; 0xa
 390:	e1a00004 	mov	r0, r4
 394:	ebffffb3 	bl	268 <buzzer_freq_sets>
 398:	e5953054 	ldr	r3, [r5, #84]
 39c:	e3130002 	tst	r3, #2	; 0x2
 3a0:	1affffed 	bne	35c <main+0x6c>
 3a4:	e3a00078 	mov	r0, #120	; 0x78
 3a8:	ebffff66 	bl	148 <putccc>
 3ac:	e3a0000a 	mov	r0, #10	; 0xa
 3b0:	ebffff64 	bl	148 <putccc>
 3b4:	e3a0000d 	mov	r0, #13	; 0xd
 3b8:	ebffff62 	bl	148 <putccc>
 3bc:	e3a000c8 	mov	r0, #200	; 0xc8
 3c0:	e1540000 	cmp	r4, r0
 3c4:	8244400a 	subhi	r4, r4, #10	; 0xa
 3c8:	ebffff7c 	bl	1c0 <delay>
 3cc:	e1a00004 	mov	r0, r4
 3d0:	ebffffa4 	bl	268 <buzzer_freq_sets>
 3d4:	eaffffe0 	b	35c <main+0x6c>

Disassembly of section .ARM.attributes:

00000000 <.ARM.attributes>:
   0:	00002541 	andeq	r2, r0, r1, asr #10
   4:	61656100 	cmnvs	r5, r0, lsl #2
   8:	01006962 	tsteq	r0, r2, ror #18
   c:	0000001b 	andeq	r0, r0, fp, lsl r0
  10:	00543405 	subseq	r3, r4, r5, lsl #8
  14:	01080206 	tsteq	r8, r6, lsl #4
  18:	04120109 	ldreq	r0, [r2], #-265
  1c:	01150114 	tsteq	r5, r4, lsl r1
  20:	01180317 	tsteq	r8, r7, lsl r3
  24:	Address 0x00000024 is out of bounds.


Disassembly of section .comment:

00000000 <.comment>:
   0:	43434700 	movtmi	r4, #14080	; 0x3700
   4:	5328203a 	.word	0x5328203a
   8:	6372756f 	.word	0x6372756f
   c:	20797265 	.word	0x20797265
  10:	202b2b47 	.word	0x202b2b47
  14:	6574694c 	.word	0x6574694c
  18:	30303220 	.word	0x30303220
  1c:	2d317139 	.word	0x2d317139
  20:	29363731 	.word	0x29363731
  24:	332e3420 	.word	0x332e3420
  28:	0000332e 	.word	0x0000332e
  2c:	3a434347 	.word	0x3a434347
  30:	6f532820 	.word	0x6f532820
  34:	65637275 	.word	0x65637275
  38:	47207972 	.word	0x47207972
  3c:	4c202b2b 	.word	0x4c202b2b
  40:	20657469 	.word	0x20657469
  44:	39303032 	.word	0x39303032
  48:	312d3171 	.word	0x312d3171
  4c:	20293637 	.word	0x20293637
  50:	2e332e34 	.word	0x2e332e34
  54:	0033      	.short	0x0033
  56:	00          	.byte	0x00
  57:	47          	.byte	0x47
  58:	203a4343 	.word	0x203a4343
  5c:	756f5328 	.word	0x756f5328
  60:	72656372 	.word	0x72656372
  64:	2b472079 	.word	0x2b472079
  68:	694c202b 	.word	0x694c202b
  6c:	32206574 	.word	0x32206574
  70:	71393030 	.word	0x71393030
  74:	37312d31 	.word	0x37312d31
  78:	34202936 	.word	0x34202936
  7c:	332e332e 	.word	0x332e332e
	...
